target datalayout = "e-m:e-p270:32:32-p271:32:32-p272:64:64-i64:64-i128:128-f80:128-n8:16:32:64-S128"
target triple = "x86_64-pc-linux-gnu"

@rrc_irat_ho_info_handle = internal global ptr null, align 8

; Function Attrs: null_pointer_is_valid sspstrong uwtable
define internal zeroext i16 @de_rr_utran_cm(ptr noundef %0, ptr noundef %1, ptr noundef %2, i32 noundef %3, i32 noundef %4, ptr noundef %5, i32 noundef %6) #1 {
  %8 = alloca ptr, align 8
  %9 = alloca ptr, align 8
  %10 = alloca ptr, align 8
  %11 = alloca i32, align 4
  %12 = alloca i32, align 4
  %13 = alloca ptr, align 8
  %14 = alloca i32, align 4
  %15 = alloca i32, align 4
  %16 = alloca ptr, align 8
  store ptr %0, ptr %8, align 8
  store ptr %1, ptr %9, align 8
  store ptr %2, ptr %10, align 8
  store i32 %3, ptr %11, align 4
  store i32 %4, ptr %12, align 4
  store ptr %5, ptr %13, align 8
  store i32 %6, ptr %14, align 4
  call void @llvm.lifetime.start.p0(i64 4, ptr %15) #11
  call void @llvm.lifetime.start.p0(i64 8, ptr %16) #11
  %17 = load i32, ptr %11, align 4
  store i32 %17, ptr %15, align 4
  %18 = load i32, ptr %12, align 4
  %19 = icmp ne i32 %18, 0
  br i1 %19, label %20, label %34

20:                                               ; preds = %7
  %21 = load ptr, ptr %8, align 8
  %22 = load i32, ptr %15, align 4
  %23 = load i32, ptr %12, align 4
  %24 = call ptr @tvb_new_subset_length(ptr noundef %21, i32 noundef %22, i32 noundef %23)
  store ptr %24, ptr %16, align 8
  %25 = load ptr, ptr @rrc_irat_ho_info_handle, align 8
  %26 = icmp ne ptr %25, null
  br i1 %26, label %27, label %33

27:                                               ; preds = %20
  %28 = load ptr, ptr @rrc_irat_ho_info_handle, align 8
  %29 = load ptr, ptr %16, align 8
  %30 = load ptr, ptr %10, align 8
  %31 = load ptr, ptr %9, align 8
  %32 = call i32 @call_dissector(ptr noundef %28, ptr noundef %29, ptr noundef %30, ptr noundef %31)
  br label %33

33:                                               ; preds = %27, %20
  br label %34

34:                                               ; preds = %33, %7
  %35 = load i32, ptr %12, align 4
  %36 = load i32, ptr %15, align 4
  %37 = add i32 %36, %35
  store i32 %37, ptr %15, align 4
  %38 = load i32, ptr %15, align 4
  %39 = load i32, ptr %11, align 4
  %40 = sub i32 %38, %39
  %41 = trunc i32 %40 to i16
  call void @llvm.lifetime.end.p0(i64 8, ptr %16) #11
  call void @llvm.lifetime.end.p0(i64 4, ptr %15) #11
  ret i16 %41
}