; Function Attrs: null_pointer_is_valid sspstrong uwtable
define internal noundef zeroext i16 @de_rr_utran_cm(ptr noundef %0, ptr noundef %1, ptr noundef %2, i32 noundef %3, i32 noundef %4, ptr readnone captures(none) %5, i32 %6) #3 {
  %.not = icmp eq i32 %4, 0
  br i1 %.not, label %13, label %8

8:                                                ; preds = %7
  %9 = tail call ptr @tvb_new_subset_length(ptr noundef %0, i32 noundef %3, i32 noundef %4)
  %10 = load ptr, ptr @rrc_irat_ho_info_handle, align 8
  %.not12 = icmp eq ptr %10, null
  br i1 %.not12, label %13, label %11

11:                                               ; preds = %8
  %12 = tail call i32 @call_dissector(ptr noundef nonnull %10, ptr noundef %9, ptr noundef %2, ptr noundef %1)
  br label %13

13:                                               ; preds = %8, %11, %7
  %14 = trunc i32 %4 to i16
  ret i16 %14
}